; Function Attrs: mustprogress uwtable
define void @_Z30gmx_ana_pos_reserve_for_appendP13gmx_ana_pos_tiibb(ptr noundef %0, i32 noundef %1, i32 noundef %2, i1 noundef zeroext %3, i1 noundef zeroext %4) local_unnamed_addr #0 {
  tail call void @_Z19gmx_ana_pos_reserveP13gmx_ana_pos_tii(ptr noundef %0, i32 noundef %1, i32 noundef %2)
  %6 = getelementptr inbounds i8, ptr %0, i64 72
  %7 = sext i32 %2 to i64
  %8 = tail call noundef ptr @_Z11save_callocPKcS0_imm(ptr noundef nonnull @.str.11, ptr noundef nonnull @.str.1, i32 noundef 152, i64 noundef %7, i64 noundef 4)
  store ptr %8, ptr %6, align 8
  %9 = getelementptr inbounds i8, ptr %0, i64 84
  store i32 %2, ptr %9, align 4
  br i1 %3, label %10, label %_Z30gmx_ana_pos_reserve_velocitiesP13gmx_ana_pos_t.exit

10:                                               ; preds = %5
  %11 = getelementptr inbounds i8, ptr %0, i64 144
  %12 = load i32, ptr %11, align 8
  %13 = icmp sgt i32 %12, 0
  br i1 %13, label %15, label %14

14:                                               ; preds = %10
  tail call void @_ZN3gmx8internal13assertHandlerEPKcS2_S2_S2_i(ptr noundef nonnull @.str.9, ptr noundef nonnull @.str.10, ptr noundef nonnull @"__PRETTY_FUNCTION__._ZZ30gmx_ana_pos_reserve_velocitiesP13gmx_ana_pos_tENK3$_0clEv", ptr noundef nonnull @.str.1, i32 noundef 114) #14
  unreachable

15:                                               ; preds = %10
  %16 = getelementptr inbounds i8, ptr %0, i64 8
  %17 = load ptr, ptr %16, align 8
  %.not.i = icmp eq ptr %17, null
  br i1 %.not.i, label %18, label %_Z30gmx_ana_pos_reserve_velocitiesP13gmx_ana_pos_t.exit

18:                                               ; preds = %15
  %19 = zext nneg i32 %12 to i64
  %20 = tail call noundef ptr @_Z11save_callocPKcS0_imm(ptr noundef nonnull @.str.5, ptr noundef nonnull @.str.1, i32 noundef 117, i64 noundef %19, i64 noundef 12)
  store ptr %20, ptr %16, align 8
  br label %_Z30gmx_ana_pos_reserve_velocitiesP13gmx_ana_pos_t.exit

_Z30gmx_ana_pos_reserve_velocitiesP13gmx_ana_pos_t.exit: ; preds = %18, %15, %5
  br i1 %4, label %21, label %_Z26gmx_ana_pos_reserve_forcesP13gmx_ana_pos_t.exit

21:                                               ; preds = %_Z30gmx_ana_pos_reserve_velocitiesP13gmx_ana_pos_t.exit
  %22 = getelementptr inbounds i8, ptr %0, i64 144
  %23 = load i32, ptr %22, align 8
  %24 = icmp sgt i32 %23, 0
  br i1 %24, label %26, label %25

25:                                               ; preds = %21
  tail call void @_ZN3gmx8internal13assertHandlerEPKcS2_S2_S2_i(ptr noundef nonnull @.str.9, ptr noundef nonnull @.str.10, ptr noundef nonnull @"__PRETTY_FUNCTION__._ZZ26gmx_ana_pos_reserve_forcesP13gmx_ana_pos_tENK3$_0clEv", ptr noundef nonnull @.str.1, i32 noundef 129) #14
  unreachable

26:                                               ; preds = %21
  %27 = getelementptr inbounds i8, ptr %0, i64 16
  %28 = load ptr, ptr %27, align 8
  %.not.i10 = icmp eq ptr %28, null
  br i1 %.not.i10, label %29, label %_Z26gmx_ana_pos_reserve_forcesP13gmx_ana_pos_t.exit

29:                                               ; preds = %26
  %30 = zext nneg i32 %23 to i64
  %31 = tail call noundef ptr @_Z11save_callocPKcS0_imm(ptr noundef nonnull @.str.6, ptr noundef nonnull @.str.1, i32 noundef 132, i64 noundef %30, i64 noundef 12)
  store ptr %31, ptr %27, align 8
  br label %_Z26gmx_ana_pos_reserve_forcesP13gmx_ana_pos_t.exit

_Z26gmx_ana_pos_reserve_forcesP13gmx_ana_pos_t.exit: ; preds = %29, %26, %_Z30gmx_ana_pos_reserve_velocitiesP13gmx_ana_pos_t.exit
  ret void
}